target datalayout = "e-m:e-p270:32:32-p271:32:32-p272:64:64-i64:64-i128:128-f80:128-n8:16:32:64-S128"
target triple = "x86_64-pc-linux-gnu"

%class.btSequentialImpulseConstraintSolver = type { %class.btConstraintSolver, %class.btAlignedObjectArray, %class.btAlignedObjectArray.0, %class.btAlignedObjectArray.0, %class.btAlignedObjectArray.0, %class.btAlignedObjectArray.0, %class.btAlignedObjectArray.2, %class.btAlignedObjectArray.2, %class.btAlignedObjectArray.2, %class.btAlignedObjectArray.4, i32, i32, %class.btAlignedObjectArray.2, ptr, ptr, ptr, i32, float, i64, %struct.btSolverAnalyticsData }
%class.btConstraintSolver = type { ptr }
%class.btAlignedObjectArray = type <{ [4 x i8], i32, i32, [4 x i8], ptr, i8, [7 x i8] }>
%class.btAlignedObjectArray.0 = type <{ [4 x i8], i32, i32, [4 x i8], ptr, i8, [7 x i8] }>
%class.btAlignedObjectArray.4 = type <{ [4 x i8], i32, i32, [4 x i8], ptr, i8, [7 x i8] }>
%class.btAlignedObjectArray.2 = type <{ [4 x i8], i32, i32, [4 x i8], ptr, i8, [7 x i8] }>
%struct.btSolverAnalyticsData = type { i32, i32, i32, i32, i32, double }
%class.btVector3 = type { [4 x float] }
%class.btTransform = type { %class.btMatrix3x3, %class.btVector3 }
%class.btMatrix3x3 = type { [3 x %class.btVector3] }
%class.btCollisionObject = type <{ ptr, %class.btTransform, %class.btTransform, %class.btVector3, %class.btVector3, %class.btVector3, i32, float, ptr, ptr, ptr, ptr, i32, i32, i32, i32, i32, float, float, float, float, float, float, float, i32, [4 x i8], ptr, i32, i32, i32, float, float, float, i32, [4 x i8], %class.btAlignedObjectArray.7, i32, %class.btVector3, [4 x i8] }>
%class.btAlignedObjectArray.7 = type <{ [4 x i8], i32, i32, [4 x i8], ptr, i8, [7 x i8] }>
%struct.btContactSolverInfoData = type { float, float, float, float, float, i32, float, float, float, float, float, float, float, float, float, float, i32, float, float, float, float, float, i32, i32, i32, float, float, float, float, i8, i8, i32, i32 }
%class.CProfileSample = type { i8 }

@.str.5 = private unnamed_addr constant [34 x i8] c"solveGroupCacheFriendlyIterations\00", align 1

; Function Attrs: inlinehint mustprogress nounwind uwtable
define linkonce_odr dso_local noundef i32 @_ZNK17btCollisionObject14getCompanionIdEv(ptr noundef nonnull align 8 dereferenceable(372) %0) #3 comdat align 2 {
  %2 = alloca ptr, align 8
  store ptr %0, ptr %2, align 8, !tbaa !74
  %3 = load ptr, ptr %2, align 8
  %4 = getelementptr inbounds nuw %class.btCollisionObject, ptr %3, i32 0, i32 14
  %5 = load i32, ptr %4, align 8, !tbaa !122
  ret i32 %5
}

; Function Attrs: mustprogress uwtable
define dso_local noundef float @_ZN35btSequentialImpulseConstraintSolver33solveGroupCacheFriendlyIterationsEPP17btCollisionObjectiPP20btPersistentManifoldiPP17btTypedConstraintiRK19btContactSolverInfoP12btIDebugDraw(ptr noundef nonnull align 8 dereferenceable(408) %0, ptr noundef %1, i32 noundef %2, ptr noundef %3, i32 noundef %4, ptr noundef %5, i32 noundef %6, ptr noundef nonnull align 4 dereferenceable(128) %7, ptr noundef %8) unnamed_addr #2 align 2 personality ptr @__gxx_personality_v0 {
  %10 = alloca ptr, align 8
  %11 = alloca ptr, align 8
  %12 = alloca i32, align 4
  %13 = alloca ptr, align 8
  %14 = alloca i32, align 4
  %15 = alloca ptr, align 8
  %16 = alloca i32, align 4
  %17 = alloca ptr, align 8
  %18 = alloca ptr, align 8
  %19 = alloca %class.CProfileSample, align 1
  %20 = alloca ptr, align 8
  %21 = alloca i32, align 4
  %22 = alloca i32, align 4
  %23 = alloca i32, align 4
  %24 = alloca i32, align 4
  store ptr %0, ptr %10, align 8, !tbaa !12
  store ptr %1, ptr %11, align 8, !tbaa !198
  store i32 %2, ptr %12, align 4, !tbaa !9
  store ptr %3, ptr %13, align 8, !tbaa !152
  store i32 %4, ptr %14, align 4, !tbaa !9
  store ptr %5, ptr %15, align 8, !tbaa !187
  store i32 %6, ptr %16, align 4, !tbaa !9
  store ptr %7, ptr %17, align 8, !tbaa !106
  store ptr %8, ptr %18, align 8, !tbaa !207
  %25 = load ptr, ptr %10, align 8
  call void @llvm.lifetime.start.p0(i64 1, ptr %19) #15
  call void @_ZN14CProfileSampleC1EPKc(ptr noundef nonnull align 1 dereferenceable(1) %19, ptr noundef @.str.5)
  %26 = load ptr, ptr %11, align 8, !tbaa !198
  %27 = load i32, ptr %12, align 4, !tbaa !9
  %28 = load ptr, ptr %13, align 8, !tbaa !152
  %29 = load i32, ptr %14, align 4, !tbaa !9
  %30 = load ptr, ptr %15, align 8, !tbaa !187
  %31 = load i32, ptr %16, align 4, !tbaa !9
  %32 = load ptr, ptr %17, align 8, !tbaa !106
  %33 = load ptr, ptr %18, align 8, !tbaa !207
  %34 = load ptr, ptr %25, align 8, !tbaa !37
  %35 = getelementptr inbounds ptr, ptr %34, i64 10
  %36 = load ptr, ptr %35, align 8
  invoke void %36(ptr noundef nonnull align 8 dereferenceable(408) %25, ptr noundef %26, i32 noundef %27, ptr noundef %28, i32 noundef %29, ptr noundef %30, i32 noundef %31, ptr noundef nonnull align 4 dereferenceable(128) %32, ptr noundef %33)
          to label %37 unwind label %58

37:                                               ; preds = %9
  call void @llvm.lifetime.start.p0(i64 4, ptr %22) #15
  %38 = getelementptr inbounds nuw %class.btSequentialImpulseConstraintSolver, ptr %25, i32 0, i32 10
  %39 = load i32, ptr %38, align 8, !tbaa !159
  %40 = load ptr, ptr %17, align 8, !tbaa !106
  %41 = getelementptr inbounds nuw %struct.btContactSolverInfoData, ptr %40, i32 0, i32 5
  %42 = load i32, ptr %41, align 4, !tbaa !158
  %43 = icmp sgt i32 %39, %42
  br i1 %43, label %44, label %47

44:                                               ; preds = %37
  %45 = getelementptr inbounds nuw %class.btSequentialImpulseConstraintSolver, ptr %25, i32 0, i32 10
  %46 = load i32, ptr %45, align 8, !tbaa !159
  br label %51

47:                                               ; preds = %37
  %48 = load ptr, ptr %17, align 8, !tbaa !106
  %49 = getelementptr inbounds nuw %struct.btContactSolverInfoData, ptr %48, i32 0, i32 5
  %50 = load i32, ptr %49, align 4, !tbaa !158
  br label %51

51:                                               ; preds = %47, %44
  %52 = phi i32 [ %46, %44 ], [ %50, %47 ]
  store i32 %52, ptr %22, align 4, !tbaa !9
  call void @llvm.lifetime.start.p0(i64 4, ptr %23) #15
  store i32 0, ptr %23, align 4, !tbaa !9
  br label %53

53:                                               ; preds = %127, %51
  %54 = load i32, ptr %23, align 4, !tbaa !9
  %55 = load i32, ptr %22, align 4, !tbaa !9
  %56 = icmp slt i32 %54, %55
  br i1 %56, label %62, label %57

57:                                               ; preds = %53
  store i32 2, ptr %24, align 4
  br label %130

58:                                               ; preds = %9
  %59 = landingpad { ptr, i32 }
          cleanup
  %60 = extractvalue { ptr, i32 } %59, 0
  store ptr %60, ptr %20, align 8
  %61 = extractvalue { ptr, i32 } %59, 1
  store i32 %61, ptr %21, align 4
  br label %132

62:                                               ; preds = %53
  %63 = load i32, ptr %23, align 4, !tbaa !9
  %64 = load ptr, ptr %11, align 8, !tbaa !198
  %65 = load i32, ptr %12, align 4, !tbaa !9
  %66 = load ptr, ptr %13, align 8, !tbaa !152
  %67 = load i32, ptr %14, align 4, !tbaa !9
  %68 = load ptr, ptr %15, align 8, !tbaa !187
  %69 = load i32, ptr %16, align 4, !tbaa !9
  %70 = load ptr, ptr %17, align 8, !tbaa !106
  %71 = load ptr, ptr %18, align 8, !tbaa !207
  %72 = load ptr, ptr %25, align 8, !tbaa !37
  %73 = getelementptr inbounds ptr, ptr %72, i64 12
  %74 = load ptr, ptr %73, align 8
  %75 = invoke noundef float %74(ptr noundef nonnull align 8 dereferenceable(408) %25, i32 noundef %63, ptr noundef %64, i32 noundef %65, ptr noundef %66, i32 noundef %67, ptr noundef %68, i32 noundef %69, ptr noundef nonnull align 4 dereferenceable(128) %70, ptr noundef %71)
          to label %76 unwind label %110

76:                                               ; preds = %62
  %77 = getelementptr inbounds nuw %class.btSequentialImpulseConstraintSolver, ptr %25, i32 0, i32 17
  store float %75, ptr %77, align 4, !tbaa !226
  %78 = getelementptr inbounds nuw %class.btSequentialImpulseConstraintSolver, ptr %25, i32 0, i32 17
  %79 = load float, ptr %78, align 4, !tbaa !226
  %80 = load ptr, ptr %17, align 8, !tbaa !106
  %81 = getelementptr inbounds nuw %struct.btContactSolverInfoData, ptr %80, i32 0, i32 27
  %82 = load float, ptr %81, align 4, !tbaa !224
  %83 = fcmp ole float %79, %82
  br i1 %83, label %89, label %84

84:                                               ; preds = %76
  %85 = load i32, ptr %23, align 4, !tbaa !9
  %86 = load i32, ptr %22, align 4, !tbaa !9
  %87 = sub nsw i32 %86, 1
  %88 = icmp sge i32 %85, %87
  br i1 %88, label %89, label %126

89:                                               ; preds = %84, %76
  %90 = getelementptr inbounds nuw %class.btSequentialImpulseConstraintSolver, ptr %25, i32 0, i32 19
  %91 = getelementptr inbounds nuw %struct.btSolverAnalyticsData, ptr %90, i32 0, i32 3
  %92 = load i32, ptr %91, align 4, !tbaa !227
  %93 = add nsw i32 %92, 1
  store i32 %93, ptr %91, align 4, !tbaa !227
  %94 = load i32, ptr %23, align 4, !tbaa !9
  %95 = add nsw i32 %94, 1
  %96 = getelementptr inbounds nuw %class.btSequentialImpulseConstraintSolver, ptr %25, i32 0, i32 19
  %97 = getelementptr inbounds nuw %struct.btSolverAnalyticsData, ptr %96, i32 0, i32 4
  store i32 %95, ptr %97, align 8, !tbaa !228
  %98 = getelementptr inbounds nuw %class.btSequentialImpulseConstraintSolver, ptr %25, i32 0, i32 19
  %99 = getelementptr inbounds nuw %struct.btSolverAnalyticsData, ptr %98, i32 0, i32 0
  store i32 -2, ptr %99, align 8, !tbaa !229
  %100 = load i32, ptr %12, align 4, !tbaa !9
  %101 = icmp sgt i32 %100, 0
  br i1 %101, label %102, label %114

102:                                              ; preds = %89
  %103 = load ptr, ptr %11, align 8, !tbaa !198
  %104 = getelementptr inbounds ptr, ptr %103, i64 0
  %105 = load ptr, ptr %104, align 8, !tbaa !74
  %106 = invoke noundef i32 @_ZNK17btCollisionObject14getCompanionIdEv(ptr noundef nonnull align 8 dereferenceable(372) %105)
          to label %107 unwind label %110

107:                                              ; preds = %102
  %108 = getelementptr inbounds nuw %class.btSequentialImpulseConstraintSolver, ptr %25, i32 0, i32 19
  %109 = getelementptr inbounds nuw %struct.btSolverAnalyticsData, ptr %108, i32 0, i32 0
  store i32 %106, ptr %109, align 8, !tbaa !229
  br label %114

110:                                              ; preds = %102, %62
  %111 = landingpad { ptr, i32 }
          cleanup
  %112 = extractvalue { ptr, i32 } %111, 0
  store ptr %112, ptr %20, align 8
  %113 = extractvalue { ptr, i32 } %111, 1
  store i32 %113, ptr %21, align 4
  call void @llvm.lifetime.end.p0(i64 4, ptr %23) #15
  call void @llvm.lifetime.end.p0(i64 4, ptr %22) #15
  br label %132

114:                                              ; preds = %107, %89
  %115 = load i32, ptr %12, align 4, !tbaa !9
  %116 = getelementptr inbounds nuw %class.btSequentialImpulseConstraintSolver, ptr %25, i32 0, i32 19
  %117 = getelementptr inbounds nuw %struct.btSolverAnalyticsData, ptr %116, i32 0, i32 1
  store i32 %115, ptr %117, align 4, !tbaa !230
  %118 = load i32, ptr %14, align 4, !tbaa !9
  %119 = getelementptr inbounds nuw %class.btSequentialImpulseConstraintSolver, ptr %25, i32 0, i32 19
  %120 = getelementptr inbounds nuw %struct.btSolverAnalyticsData, ptr %119, i32 0, i32 2
  store i32 %118, ptr %120, align 8, !tbaa !231
  %121 = getelementptr inbounds nuw %class.btSequentialImpulseConstraintSolver, ptr %25, i32 0, i32 17
  %122 = load float, ptr %121, align 4, !tbaa !226
  %123 = fpext float %122 to double
  %124 = getelementptr inbounds nuw %class.btSequentialImpulseConstraintSolver, ptr %25, i32 0, i32 19
  %125 = getelementptr inbounds nuw %struct.btSolverAnalyticsData, ptr %124, i32 0, i32 5
  store double %123, ptr %125, align 8, !tbaa !232
  store i32 2, ptr %24, align 4
  br label %130

126:                                              ; preds = %84
  br label %127

127:                                              ; preds = %126
  %128 = load i32, ptr %23, align 4, !tbaa !9
  %129 = add nsw i32 %128, 1
  store i32 %129, ptr %23, align 4, !tbaa !9
  br label %53, !llvm.loop !233

130:                                              ; preds = %114, %57
  call void @llvm.lifetime.end.p0(i64 4, ptr %23) #15
  br label %131

131:                                              ; preds = %130
  call void @llvm.lifetime.end.p0(i64 4, ptr %22) #15
  store i32 1, ptr %24, align 4
  call void @_ZN14CProfileSampleD1Ev(ptr noundef nonnull align 1 dereferenceable(1) %19) #15
  call void @llvm.lifetime.end.p0(i64 1, ptr %19) #15
  ret float 0.000000e+00

132:                                              ; preds = %110, %58
  call void @_ZN14CProfileSampleD1Ev(ptr noundef nonnull align 1 dereferenceable(1) %19) #15
  call void @llvm.lifetime.end.p0(i64 1, ptr %19) #15
  br label %133

133:                                              ; preds = %132
  %134 = load ptr, ptr %20, align 8
  %135 = load i32, ptr %21, align 4
  %136 = insertvalue { ptr, i32 } poison, ptr %134, 0
  %137 = insertvalue { ptr, i32 } %136, i32 %135, 1
  resume { ptr, i32 } %137
}