; Function Attrs: mustprogress uwtable
define dso_local noundef float @_ZN35btSequentialImpulseConstraintSolver33solveGroupCacheFriendlyIterationsEPP17btCollisionObjectiPP20btPersistentManifoldiPP17btTypedConstraintiRK19btContactSolverInfoP12btIDebugDraw(ptr noundef nonnull align 8 dereferenceable(408) %0, ptr noundef %1, i32 noundef %2, ptr noundef %3, i32 noundef %4, ptr noundef %5, i32 noundef %6, ptr noundef nonnull align 4 dereferenceable(128) %7, ptr noundef %8) unnamed_addr #0 align 2 personality ptr @__gxx_personality_v0 {
  %10 = alloca %class.CProfileSample, align 1
  call void @llvm.lifetime.start.p0(i64 1, ptr nonnull %10) #23
  call void @_ZN14CProfileSampleC1EPKc(ptr noundef nonnull align 1 dereferenceable(1) %10, ptr noundef nonnull @.str.5)
  %11 = load ptr, ptr %0, align 8, !tbaa !29
  %12 = getelementptr inbounds nuw i8, ptr %11, i64 80
  %13 = load ptr, ptr %12, align 8
  invoke void %13(ptr noundef nonnull align 8 dereferenceable(408) %0, ptr noundef %1, i32 noundef %2, ptr noundef %3, i32 noundef %4, ptr noundef %5, i32 noundef %6, ptr noundef nonnull align 4 dereferenceable(128) %7, ptr noundef %8)
          to label %14 unwind label %23

14:                                               ; preds = %9
  %15 = getelementptr inbounds nuw i8, ptr %0, i64 296
  %16 = load i32, ptr %15, align 8, !tbaa !138
  %17 = getelementptr inbounds nuw i8, ptr %7, i64 20
  %18 = load i32, ptr %17, align 4, !tbaa !141
  %. = call i32 @llvm.smax.i32(i32 %16, i32 %18)
  %19 = icmp sgt i32 %., 0
  br i1 %19, label %.lr.ph, label %.loopexit

.lr.ph:                                           ; preds = %14
  %20 = getelementptr inbounds nuw i8, ptr %0, i64 364
  %21 = getelementptr inbounds nuw i8, ptr %7, i64 108
  %22 = add nsw i32 %., -1
  br label %25

23:                                               ; preds = %9
  %24 = landingpad { ptr, i32 }
          cleanup
  br label %54

25:                                               ; preds = %52, %.lr.ph
  %.040 = phi i32 [ 0, %.lr.ph ], [ %53, %52 ]
  %26 = load ptr, ptr %0, align 8, !tbaa !29
  %27 = getelementptr inbounds nuw i8, ptr %26, i64 96
  %28 = load ptr, ptr %27, align 8
  %29 = invoke noundef float %28(ptr noundef nonnull align 8 dereferenceable(408) %0, i32 noundef %.040, ptr noundef %1, i32 noundef %2, ptr noundef %3, i32 noundef %4, ptr noundef %5, i32 noundef %6, ptr noundef nonnull align 4 dereferenceable(128) %7, ptr noundef %8)
          to label %30 unwind label %45

30:                                               ; preds = %25
  store float %29, ptr %20, align 4, !tbaa !196
  %31 = load float, ptr %21, align 4, !tbaa !195
  %32 = fcmp ugt float %29, %31
  %.not = icmp slt i32 %.040, %22
  %or.cond = select i1 %32, i1 %.not, i1 false
  br i1 %or.cond, label %52, label %33

33:                                               ; preds = %30
  %34 = getelementptr inbounds nuw i8, ptr %0, i64 376
  %35 = getelementptr inbounds nuw i8, ptr %0, i64 388
  %36 = load i32, ptr %35, align 4, !tbaa !197
  %37 = add nsw i32 %36, 1
  store i32 %37, ptr %35, align 4, !tbaa !197
  %38 = add nuw nsw i32 %.040, 1
  %39 = getelementptr inbounds nuw i8, ptr %0, i64 392
  store i32 %38, ptr %39, align 8, !tbaa !198
  store i32 -2, ptr %34, align 8, !tbaa !199
  %40 = icmp sgt i32 %2, 0
  br i1 %40, label %41, label %47

41:                                               ; preds = %33
  %42 = load ptr, ptr %1, align 8, !tbaa !173
  %43 = getelementptr inbounds nuw i8, ptr %42, i64 232
  %44 = load i32, ptr %43, align 8, !tbaa !102
  store i32 %44, ptr %34, align 8, !tbaa !199
  br label %47

45:                                               ; preds = %25
  %46 = landingpad { ptr, i32 }
          cleanup
  br label %54

47:                                               ; preds = %41, %33
  %48 = getelementptr inbounds nuw i8, ptr %0, i64 380
  store i32 %2, ptr %48, align 4, !tbaa !200
  %49 = getelementptr inbounds nuw i8, ptr %0, i64 384
  store i32 %4, ptr %49, align 8, !tbaa !201
  %50 = fpext float %29 to double
  %51 = getelementptr inbounds nuw i8, ptr %0, i64 400
  store double %50, ptr %51, align 8, !tbaa !202
  br label %.loopexit

52:                                               ; preds = %30
  %53 = add nuw nsw i32 %.040, 1
  br label %25

.loopexit:                                        ; preds = %14, %47
  call void @_ZN14CProfileSampleD1Ev(ptr noundef nonnull align 1 dereferenceable(1) %10) #23
  call void @llvm.lifetime.end.p0(i64 1, ptr nonnull %10) #23
  ret float 0.000000e+00

54:                                               ; preds = %45, %23
  %.pn = phi { ptr, i32 } [ %46, %45 ], [ %24, %23 ]
  call void @_ZN14CProfileSampleD1Ev(ptr noundef nonnull align 1 dereferenceable(1) %10) #23
  call void @llvm.lifetime.end.p0(i64 1, ptr nonnull %10) #23
  resume { ptr, i32 } %.pn
}